target datalayout = "e-m:e-p270:32:32-p271:32:32-p272:64:64-i64:64-i128:128-f80:128-n8:16:32:64-S128"
target triple = "x86_64-pc-linux-gnu"

%struct.TriggerDesc = type { ptr, i32, i8, i8, i8, i8, i8, i8, i8, i8, i8, i8, i8, i8, i8, i8, i8, i8, i8, i8, i8, i8, i8 }
%struct.ResultRelInfo = type { i32, i32, ptr, i32, ptr, ptr, i16, ptr, i8, ptr, ptr, ptr, i8, i8, ptr, ptr, ptr, ptr, ptr, ptr, ptr, ptr, ptr, ptr, i8, i32, i32, i32, ptr, ptr, ptr, ptr, ptr, ptr, ptr, i32, i32, ptr, ptr, ptr, ptr, [3 x ptr], ptr, ptr, ptr, i8, ptr, i8, ptr, ptr, ptr, ptr }

; Function Attrs: nounwind uwtable
define dso_local void @ExecASInsertTriggers(ptr noundef %0, ptr noundef %1, ptr noundef %2) #0 {
  %4 = alloca ptr, align 8
  %5 = alloca ptr, align 8
  %6 = alloca ptr, align 8
  %7 = alloca ptr, align 8
  store ptr %0, ptr %4, align 8
  store ptr %1, ptr %5, align 8
  store ptr %2, ptr %6, align 8
  call void @llvm.lifetime.start.p0(i64 8, ptr %7) #12
  %8 = load ptr, ptr %5, align 8
  %9 = getelementptr inbounds nuw %struct.ResultRelInfo, ptr %8, i32 0, i32 14
  %10 = load ptr, ptr %9, align 8
  store ptr %10, ptr %7, align 8
  %11 = load ptr, ptr %7, align 8
  %12 = icmp ne ptr %11, null
  br i1 %12, label %13, label %22

13:                                               ; preds = %3
  %14 = load ptr, ptr %7, align 8
  %15 = getelementptr inbounds nuw %struct.TriggerDesc, ptr %14, i32 0, i32 6
  %16 = load i8, ptr %15, align 8, !range !4, !noundef !5
  %17 = trunc i8 %16 to i1
  br i1 %17, label %18, label %22

18:                                               ; preds = %13
  %19 = load ptr, ptr %4, align 8
  %20 = load ptr, ptr %5, align 8
  %21 = load ptr, ptr %6, align 8
  call void @AfterTriggerSaveEvent(ptr noundef %19, ptr noundef %20, ptr noundef null, ptr noundef null, i32 noundef 0, i1 noundef zeroext false, ptr noundef null, ptr noundef null, ptr noundef null, ptr noundef null, ptr noundef %21, i1 noundef zeroext false)
  br label %22

22:                                               ; preds = %18, %13, %3
  call void @llvm.lifetime.end.p0(i64 8, ptr %7) #12
  ret void
}